(lp0
S'UserInfo_15_encoding_WOE'
p1
aS'UserInfo_14_encoding_WOE'
p2
aVThirdParty_Info_Period6_10_WOE
p3
aVThirdParty_Info_Period5_2_WOE
p4
aS'UserInfo_16_encoding_WOE'
p5
aVThirdParty_Info_Period5_10_WOE
p6
aS'WeblogInfo_20_encoding_WOE'
p7
aS'UserInfo_19_encoding_WOE'
p8
aVUserInfo_17_WOE
p9
aVThirdParty_Info_Period3_10_WOE
p10
aVThirdParty_Info_Period1_10_WOE
p11
aS'WeblogInfo_2_mergeByBadRate_WOE'
p12
aS'UserInfo_1_encoding_WOE'
p13
aVThirdParty_Info_Period2_10_WOE
p14
a.