(dp0
S'WeblogInfo_19_encoding'
p1
cnumpy.core.multiarray
scalar
p2
(cnumpy
dtype
p3
(S'f8'
p4
I0
I1
tp5
Rp6
(I3
S'<'
p7
NNNI-1
I-1
I0
tp8
bS'\x01\x07\x8cz\xabP\x82?'
p9
tp10
Rp11
sVUserupdateInfo_7_PHONE
p12
g2
(g6
S'\xee\xb7.\xde\x14\xc0\x91?'
p13
tp14
Rp15
sVUserInfo_6
p16
g2
(g6
S'\xc0\x1e\x0f3\x0f\x14\x89?'
p17
tp18
Rp19
sVLogInfo1_90_avg_count
p20
g2
(g6
S'\x0e\x91\xd3\xc6l2\x92?'
p21
tp22
Rp23
sVUserInfo_5
p24
g2
(g6
S'\n\xf4\x07=\x14\xe2\x8a?'
p25
tp26
Rp27
sS'UserInfo_9_encoding'
p28
g2
(g6
S'T\x05\x17\xf3\xc3\x11h?'
p29
tp30
Rp31
sS'UserInfo_14_encoding'
p32
g2
(g6
S'\xb2\x1e\xfd\xc7g\x95\xba?'
p33
tp34
Rp35
sVUserupdateInfo_7_HASBUYCAR
p36
g2
(g6
S'\xee\xb7.\xde\x14\xc0\x91?'
p37
tp38
Rp39
sS'WeblogInfo_20_encoding'
p40
g2
(g6
S"hst\xf5\xbc'\xb1?"
p41
tp42
Rp43
sVLogInfo1_180_avg_count
p44
g2
(g6
S'g}\x9c\xb8\xf7T\x90?'
p45
tp46
Rp47
sVUserupdateInfo_90_freq
p48
g2
(g6
S'/\xb8\xe7\xe4\xe0\xd3{?'
p49
tp50
Rp51
sS'UserInfo_19_encoding'
p52
g2
(g6
S'6\xf2T\xd4e\xe0\xa9?'
p53
tp54
Rp55
sVThirdParty_Info_Period3_10
p56
g2
(g6
S'\xcd\xa0u7g\x82\xa7?'
p57
tp58
Rp59
sVThirdParty_Info_Period5_5
p60
g2
(g6
S'\x95\xd1)\\\x0f.\xaf?'
p61
tp62
Rp63
sVWeblogInfo_21
p64
g2
(g6
S'\xe9\xe6\x1d\x15\xd9\xb0\x82?'
p65
tp66
Rp67
sVThirdParty_Info_Period6_8
p68
g2
(g6
S'/\x9d:|\x80\x01\xb1?'
p69
tp70
Rp71
sVThirdParty_Info_Period6_9
p72
g2
(g6
S'\xda\xc9< c\xe8\xb3?'
p73
tp74
Rp75
sVSocialNetwork_13
p76
g2
(g6
S'\xa4\xb8_\x0c\x7f`\x80?'
p77
tp78
Rp79
sVThirdParty_Info_Period5_2
p80
g2
(g6
S"\xa3'\xc1\x01\xd3=\xb5?"
p81
tp82
Rp83
sVThirdParty_Info_Period6_2
p84
g2
(g6
S'/\x9d:|\x80\x01\xb1?'
p85
tp86
Rp87
sVThirdParty_Info_Period6_3
p88
g2
(g6
S'/\x9d:|\x80\x01\xb1?'
p89
tp90
Rp91
sVLogInfo2_30_unique
p92
g2
(g6
S'R\x9a\xc6\x0cp\xf2N?'
p93
tp94
Rp95
sS'WeblogInfo_2_mergeByBadRate'
p96
g2
(g6
S'W~\xbb\x00/\x93\xa1?'
p97
tp98
Rp99
sVThirdParty_Info_Period6_6
p100
g2
(g6
S'/\x9d:|\x80\x01\xb1?'
p101
tp102
Rp103
sVThirdParty_Info_Period6_7
p104
g2
(g6
S'/\x9d:|\x80\x01\xb1?'
p105
tp106
Rp107
sVThirdParty_Info_Period6_4
p108
g2
(g6
S'/\x9d:|\x80\x01\xb1?'
p109
tp110
Rp111
sVThirdParty_Info_Period6_5
p112
g2
(g6
S"W'O\x1f\xfes\xb2?"
p113
tp114
Rp115
sVLogInfo2_7_avg_count
p116
g2
(g6
S'&\xddh\x15d$\x8f?'
p117
tp118
Rp119
sVThirdParty_Info_Period6_14
p120
g2
(g6
S'\xd3>.\xfd/\x0f\xb1?'
p121
tp122
Rp123
sVThirdParty_Info_Period6_15
p124
g2
(g6
S'/\x9d:|\x80\x01\xb1?'
p125
tp126
Rp127
sVThirdParty_Info_Period6_16
p128
g2
(g6
S'\xdbd\xd9_`z\xb1?'
p129
tp130
Rp131
sVThirdParty_Info_Period6_17
p132
g2
(g6
S'/\x9d:|\x80\x01\xb1?'
p133
tp134
Rp135
sVThirdParty_Info_Period6_10
p136
g2
(g6
S'\x8a\xb7\x84CBw\xb8?'
p137
tp138
Rp139
sVThirdParty_Info_Period6_11
p140
g2
(g6
S'/\x9d:|\x80\x01\xb1?'
p141
tp142
Rp143
sVThirdParty_Info_Period6_12
p144
g2
(g6
S'/\x9d:|\x80\x01\xb1?'
p145
tp146
Rp147
sVThirdParty_Info_Period6_13
p148
g2
(g6
S'/\x9d:|\x80\x01\xb1?'
p149
tp150
Rp151
sVThirdParty_Info_Period2_10
p152
g2
(g6
S'\xaaHSg\x9d\x17\xa0?'
p153
tp154
Rp155
sVUserupdateInfo_7_MARRIAGESTATUSID
p156
g2
(g6
S'\xee\xb7.\xde\x14\xc0\x91?'
p157
tp158
Rp159
sVThirdParty_Info_Period4_10
p160
g2
(g6
S'\x8a\xabAL \xf1\xae?'
p161
tp162
Rp163
sVThirdParty_Info_Period1_10
p164
g2
(g6
S'\xc81\\>\x14J\xa3?'
p165
tp166
Rp167
sVUserupdateInfo_120_freq
p168
g2
(g6
S'\xd5\xe78(~(\x7f?'
p169
tp170
Rp171
sVLogInfo1_7_avg_count
p172
g2
(g6
S'v\xbaN\xf2mA\x93?'
p173
tp174
Rp175
sVLogInfo2_90_avg_count
p176
g2
(g6
S'#:JR\xc1\xfa\x91?'
p177
tp178
Rp179
sVLogInfo2_30_avg_count
p180
g2
(g6
S'B\x19\x90\x98e\xb3\x8c?'
p181
tp182
Rp183
sS'UserInfo_16_encoding'
p184
g2
(g6
S'Y\xec2\xb2\xaa\xc3\xb4?'
p185
tp186
Rp187
sVLogInfo2_150_unique
p188
g2
(g6
S'\xe9\x9c\xde2\xac\x13T?'
p189
tp190
Rp191
sVLogInfo1_150_unique
p192
g2
(g6
S'bb@k\x8erv?'
p193
tp194
Rp195
sVLogInfo2_180_avg_count
p196
g2
(g6
S'Fkb\xe5s\x85\x85?'
p197
tp198
Rp199
sS'UserInfo_3_encoding'
p200
g2
(g6
S'\xf7\xd1\x95\xca\x11\x03\x91?'
p201
tp202
Rp203
sVThirdParty_Info_Period5_10
p204
g2
(g6
S'\x0f\xc6e\xd7\x84B\xb4?'
p205
tp206
Rp207
sVUserInfo_10
p208
g2
(g6
S'S\x15\x84\xbb/\x83t?'
p209
tp210
Rp211
sVUserInfo_12
p212
g2
(g6
S'\xf7\xa5m\x92b\xa1\x80?'
p213
tp214
Rp215
sVUserInfo_17
p216
g2
(g6
S'\xf5\x91M\x82F\xfe\xa7?'
p217
tp218
Rp219
sVSocialNetwork_9
p220
g2
(g6
S'\xc4\xe8\x87\xc8#\x958?'
p221
tp222
Rp223
sVSocialNetwork_10
p224
g2
(g6
S'\xd4^\xa4\xeb\xe8\xa2;?'
p225
tp226
Rp227
sS'UserInfo_1_encoding'
p228
g2
(g6
S'\x90\x01\xbf\xab%T\xa0?'
p229
tp230
Rp231
sVLogInfo2_120_unique
p232
g2
(g6
S'\xdd\x96\xde4\xc5_^?'
p233
tp234
Rp235
sS'UserInfo_15_encoding'
p236
g2
(g6
S'\x1b0\x19\x1a\x8f[\xbf?'
p237
tp238
Rp239
sVLogInfo1_180_unique
p240
g2
(g6
S'.\x18\xd4\x97~\xe5u?'
p241
tp242
Rp243
s.